; Function Attrs: mustprogress nounwind uwtable
define hidden void @_ZN3ue222ComponentCondReferenceD0Ev(ptr noundef nonnull align 8 dereferenceable(137) %this) unnamed_addr #3 align 2 personality ptr @__gxx_personality_v0 {
entry:
  store ptr getelementptr inbounds ({ [20 x ptr] }, ptr @_ZTVN3ue222ComponentCondReferenceE, i64 0, i32 0, i64 2), ptr %this, align 8
  %assertion.i = getelementptr inbounds i8, ptr %this, i64 128
  %0 = load ptr, ptr %assertion.i, align 8
  %cmp.not.i.i = icmp eq ptr %0, null
  br i1 %cmp.not.i.i, label %_ZN3ue222ComponentCondReferenceD2Ev.exit, label %_ZNKSt14default_deleteIN3ue29ComponentEEclEPS1_.exit.i.i

_ZNKSt14default_deleteIN3ue29ComponentEEclEPS1_.exit.i.i: ; preds = %entry
  %vtable.i.i.i = load ptr, ptr %0, align 8
  %vfn.i.i.i = getelementptr inbounds i8, ptr %vtable.i.i.i, i64 8
  %1 = load ptr, ptr %vfn.i.i.i, align 8
  tail call void %1(ptr noundef nonnull align 8 dereferenceable(16) %0) #13
  br label %_ZN3ue222ComponentCondReferenceD2Ev.exit

_ZN3ue222ComponentCondReferenceD2Ev.exit:         ; preds = %entry, %_ZNKSt14default_deleteIN3ue29ComponentEEclEPS1_.exit.i.i
  store ptr null, ptr %assertion.i, align 8
  %ref_name.i = getelementptr inbounds i8, ptr %this, i64 96
  tail call void @_ZNSt7__cxx1112basic_stringIcSt11char_traitsIcESaIcEED1Ev(ptr noundef nonnull align 8 dereferenceable(32) %ref_name.i) #13
  tail call void @_ZN3ue217ComponentSequenceD2Ev(ptr noundef nonnull align 8 dereferenceable(88) %this) #13
  tail call void @_ZdlPv(ptr noundef nonnull %this) #14
  ret void
}